target datalayout = "e-m:e-p270:32:32-p271:32:32-p272:64:64-i64:64-i128:128-f80:128-n8:16:32:64-S128"
target triple = "x86_64-pc-linux-gnu"

%struct.Node = type { i32 }
%struct.Expr = type { i32 }
%struct.QualCost = type { double, double }
%struct.ForEachState = type { ptr, i32 }
%struct.List = type { i32, i32, i32, ptr, [0 x %union.ListCell] }
%union.ListCell = type { ptr }
%struct.ScalarArrayOpExpr = type { %struct.Expr, i32, i32, i32, i32, i8, i32, ptr, i32 }
%struct.RowCompareExpr = type { %struct.Expr, i32, ptr, ptr, ptr, ptr, ptr }
%struct.OpExpr = type { %struct.Expr, i32, i32, i32, i8, i32, i32, ptr, i32 }
%struct.RestrictInfo = type { i32, ptr, i8, i8, i8, i8, i8, i8, i32, i32, i32, ptr, ptr, ptr, ptr, ptr, ptr, ptr, i32, ptr, %struct.QualCost, double, double, ptr, ptr, ptr, ptr, ptr, ptr, i8, i32, double, double, double, double, i32, i32 }

@.str.1 = private unnamed_addr constant [11 x i8] c"selfuncs.c\00", align 1
@.str.8 = private unnamed_addr constant [31 x i8] c"unsupported indexqual type: %d\00", align 1
@__func__.index_other_operands_eval_cost = private unnamed_addr constant [31 x i8] c"index_other_operands_eval_cost\00", align 1

; Function Attrs: inlinehint nounwind uwtable
define internal ptr @list_nth_cell(ptr noundef %0, i32 noundef %1) #1 {
  %3 = alloca ptr, align 8
  %4 = alloca i32, align 4
  store ptr %0, ptr %3, align 8
  store i32 %1, ptr %4, align 4
  %5 = load ptr, ptr %3, align 8
  %6 = getelementptr inbounds nuw %struct.List, ptr %5, i32 0, i32 3
  %7 = load ptr, ptr %6, align 8
  %8 = load i32, ptr %4, align 4
  %9 = sext i32 %8 to i64
  %10 = getelementptr inbounds %union.ListCell, ptr %7, i64 %9
  ret ptr %10
}

; Function Attrs: nounwind uwtable
define dso_local double @index_other_operands_eval_cost(ptr noundef %0, ptr noundef %1) #0 {
  %3 = alloca ptr, align 8
  %4 = alloca ptr, align 8
  %5 = alloca double, align 8
  %6 = alloca ptr, align 8
  %7 = alloca %struct.ForEachState, align 8
  %8 = alloca ptr, align 8
  %9 = alloca ptr, align 8
  %10 = alloca %struct.QualCost, align 8
  %11 = alloca ptr, align 8
  %12 = alloca ptr, align 8
  %13 = alloca ptr, align 8
  store ptr %0, ptr %3, align 8
  store ptr %1, ptr %4, align 8
  call void @llvm.lifetime.start.p0(i64 8, ptr %5) #10
  store double 0.000000e+00, ptr %5, align 8
  call void @llvm.lifetime.start.p0(i64 8, ptr %6) #10
  call void @llvm.lifetime.start.p0(i64 16, ptr %7) #10
  %14 = getelementptr inbounds nuw %struct.ForEachState, ptr %7, i32 0, i32 0
  %15 = load ptr, ptr %4, align 8
  store ptr %15, ptr %14, align 8
  %16 = getelementptr inbounds nuw %struct.ForEachState, ptr %7, i32 0, i32 1
  store i32 0, ptr %16, align 8
  %17 = getelementptr i8, ptr %7, i64 12
  call void @llvm.memset.p0.i64(ptr align 4 %17, i8 0, i64 4, i1 false)
  br label %18

18:                                               ; preds = %122, %2
  %19 = getelementptr inbounds nuw %struct.ForEachState, ptr %7, i32 0, i32 0
  %20 = load ptr, ptr %19, align 8
  %21 = icmp ne ptr %20, null
  br i1 %21, label %22, label %39

22:                                               ; preds = %18
  %23 = getelementptr inbounds nuw %struct.ForEachState, ptr %7, i32 0, i32 1
  %24 = load i32, ptr %23, align 8
  %25 = getelementptr inbounds nuw %struct.ForEachState, ptr %7, i32 0, i32 0
  %26 = load ptr, ptr %25, align 8
  %27 = getelementptr inbounds nuw %struct.List, ptr %26, i32 0, i32 1
  %28 = load i32, ptr %27, align 4
  %29 = icmp slt i32 %24, %28
  br i1 %29, label %30, label %39

30:                                               ; preds = %22
  %31 = getelementptr inbounds nuw %struct.ForEachState, ptr %7, i32 0, i32 0
  %32 = load ptr, ptr %31, align 8
  %33 = getelementptr inbounds nuw %struct.List, ptr %32, i32 0, i32 3
  %34 = load ptr, ptr %33, align 8
  %35 = getelementptr inbounds nuw %struct.ForEachState, ptr %7, i32 0, i32 1
  %36 = load i32, ptr %35, align 8
  %37 = sext i32 %36 to i64
  %38 = getelementptr inbounds %union.ListCell, ptr %34, i64 %37
  store ptr %38, ptr %6, align 8
  br label %40

39:                                               ; preds = %22, %18
  store ptr null, ptr %6, align 8
  br label %40

40:                                               ; preds = %39, %30
  %41 = phi i32 [ 1, %30 ], [ 0, %39 ]
  %42 = icmp ne i32 %41, 0
  br i1 %42, label %44, label %43

43:                                               ; preds = %40
  call void @llvm.lifetime.end.p0(i64 16, ptr %7) #10
  br label %126

44:                                               ; preds = %40
  call void @llvm.lifetime.start.p0(i64 8, ptr %8) #10
  %45 = load ptr, ptr %6, align 8
  %46 = load ptr, ptr %45, align 8
  store ptr %46, ptr %8, align 8
  call void @llvm.lifetime.start.p0(i64 8, ptr %9) #10
  call void @llvm.lifetime.start.p0(i64 16, ptr %10) #10
  %47 = load ptr, ptr %8, align 8
  %48 = getelementptr inbounds nuw %struct.Node, ptr %47, i32 0, i32 0
  %49 = load i32, ptr %48, align 4
  %50 = icmp eq i32 %49, 317
  br i1 %50, label %51, label %55

51:                                               ; preds = %44
  %52 = load ptr, ptr %8, align 8
  %53 = getelementptr inbounds nuw %struct.RestrictInfo, ptr %52, i32 0, i32 1
  %54 = load ptr, ptr %53, align 8
  store ptr %54, ptr %8, align 8
  br label %55

55:                                               ; preds = %51, %44
  %56 = load ptr, ptr %8, align 8
  %57 = getelementptr inbounds nuw %struct.Node, ptr %56, i32 0, i32 0
  %58 = load i32, ptr %57, align 4
  %59 = icmp eq i32 %58, 17
  br i1 %59, label %60, label %67

60:                                               ; preds = %55
  call void @llvm.lifetime.start.p0(i64 8, ptr %11) #10
  %61 = load ptr, ptr %8, align 8
  store ptr %61, ptr %11, align 8
  %62 = load ptr, ptr %11, align 8
  %63 = getelementptr inbounds nuw %struct.OpExpr, ptr %62, i32 0, i32 7
  %64 = load ptr, ptr %63, align 8
  %65 = call ptr @list_nth_cell(ptr noundef %64, i32 noundef 1)
  %66 = load ptr, ptr %65, align 8
  store ptr %66, ptr %9, align 8
  call void @llvm.lifetime.end.p0(i64 8, ptr %11) #10
  br label %112

67:                                               ; preds = %55
  %68 = load ptr, ptr %8, align 8
  %69 = getelementptr inbounds nuw %struct.Node, ptr %68, i32 0, i32 0
  %70 = load i32, ptr %69, align 4
  %71 = icmp eq i32 %70, 37
  br i1 %71, label %72, label %77

72:                                               ; preds = %67
  call void @llvm.lifetime.start.p0(i64 8, ptr %12) #10
  %73 = load ptr, ptr %8, align 8
  store ptr %73, ptr %12, align 8
  %74 = load ptr, ptr %12, align 8
  %75 = getelementptr inbounds nuw %struct.RowCompareExpr, ptr %74, i32 0, i32 6
  %76 = load ptr, ptr %75, align 8
  store ptr %76, ptr %9, align 8
  call void @llvm.lifetime.end.p0(i64 8, ptr %12) #10
  br label %111

77:                                               ; preds = %67
  %78 = load ptr, ptr %8, align 8
  %79 = getelementptr inbounds nuw %struct.Node, ptr %78, i32 0, i32 0
  %80 = load i32, ptr %79, align 4
  %81 = icmp eq i32 %80, 20
  br i1 %81, label %82, label %89

82:                                               ; preds = %77
  call void @llvm.lifetime.start.p0(i64 8, ptr %13) #10
  %83 = load ptr, ptr %8, align 8
  store ptr %83, ptr %13, align 8
  %84 = load ptr, ptr %13, align 8
  %85 = getelementptr inbounds nuw %struct.ScalarArrayOpExpr, ptr %84, i32 0, i32 7
  %86 = load ptr, ptr %85, align 8
  %87 = call ptr @list_nth_cell(ptr noundef %86, i32 noundef 1)
  %88 = load ptr, ptr %87, align 8
  store ptr %88, ptr %9, align 8
  call void @llvm.lifetime.end.p0(i64 8, ptr %13) #10
  br label %110

89:                                               ; preds = %77
  %90 = load ptr, ptr %8, align 8
  %91 = getelementptr inbounds nuw %struct.Node, ptr %90, i32 0, i32 0
  %92 = load i32, ptr %91, align 4
  %93 = icmp eq i32 %92, 52
  br i1 %93, label %94, label %95

94:                                               ; preds = %89
  store ptr null, ptr %9, align 8
  br label %109

95:                                               ; preds = %89
  br label %96

96:                                               ; preds = %95
  br i1 true, label %97, label %99

97:                                               ; preds = %96
  %98 = call zeroext i1 @errstart_cold(i32 noundef 21, ptr noundef null) #11
  br i1 %98, label %101, label %106

99:                                               ; preds = %96
  %100 = call zeroext i1 @errstart(i32 noundef 21, ptr noundef null)
  br i1 %100, label %101, label %106

101:                                              ; preds = %99, %97
  %102 = load ptr, ptr %8, align 8
  %103 = getelementptr inbounds nuw %struct.Node, ptr %102, i32 0, i32 0
  %104 = load i32, ptr %103, align 4
  %105 = call i32 (ptr, ...) @errmsg_internal(ptr noundef @.str.8, i32 noundef %104)
  call void @errfinish(ptr noundef @.str.1, i32 noundef 6567, ptr noundef @__func__.index_other_operands_eval_cost)
  br label %106

106:                                              ; preds = %101, %99, %97
  unreachable

107:                                              ; No predecessors!
  br label %108

108:                                              ; preds = %107
  store ptr null, ptr %9, align 8
  br label %109

109:                                              ; preds = %108, %94
  br label %110

110:                                              ; preds = %109, %82
  br label %111

111:                                              ; preds = %110, %72
  br label %112

112:                                              ; preds = %111, %60
  %113 = load ptr, ptr %9, align 8
  %114 = load ptr, ptr %3, align 8
  call void @cost_qual_eval_node(ptr noundef %10, ptr noundef %113, ptr noundef %114)
  %115 = getelementptr inbounds nuw %struct.QualCost, ptr %10, i32 0, i32 0
  %116 = load double, ptr %115, align 8
  %117 = getelementptr inbounds nuw %struct.QualCost, ptr %10, i32 0, i32 1
  %118 = load double, ptr %117, align 8
  %119 = fadd double %116, %118
  %120 = load double, ptr %5, align 8
  %121 = fadd double %120, %119
  store double %121, ptr %5, align 8
  call void @llvm.lifetime.end.p0(i64 16, ptr %10) #10
  call void @llvm.lifetime.end.p0(i64 8, ptr %9) #10
  call void @llvm.lifetime.end.p0(i64 8, ptr %8) #10
  br label %122

122:                                              ; preds = %112
  %123 = getelementptr inbounds nuw %struct.ForEachState, ptr %7, i32 0, i32 1
  %124 = load i32, ptr %123, align 8
  %125 = add i32 %124, 1
  store i32 %125, ptr %123, align 8
  br label %18, !llvm.loop !53

126:                                              ; preds = %43
  %127 = load double, ptr %5, align 8
  call void @llvm.lifetime.end.p0(i64 8, ptr %6) #10
  call void @llvm.lifetime.end.p0(i64 8, ptr %5) #10
  ret double %127
}