; Function Attrs: nounwind uwtable
define dso_local double @index_other_operands_eval_cost(ptr noundef %0, ptr noundef readonly captures(address_is_null) %1) local_unnamed_addr #0 {
  %3 = alloca %struct.QualCost, align 8
  %.not = icmp eq ptr %1, null
  br i1 %.not, label %._crit_edge, label %.lr.ph

.lr.ph:                                           ; preds = %2
  %4 = getelementptr inbounds nuw i8, ptr %1, i64 4
  %5 = getelementptr inbounds nuw i8, ptr %1, i64 16
  %6 = getelementptr inbounds nuw i8, ptr %3, i64 8
  %7 = load i32, ptr %4, align 4
  %8 = icmp sgt i32 %7, 0
  br i1 %8, label %.lr.ph41, label %._crit_edge

._crit_edge:                                      ; preds = %37, %.lr.ph, %2
  %.0.lcssa = phi double [ 0.000000e+00, %2 ], [ 0.000000e+00, %.lr.ph ], [ %41, %37 ]
  ret double %.0.lcssa

.lr.ph41:                                         ; preds = %.lr.ph, %37
  %indvars.iv = phi i64 [ %indvars.iv.next, %37 ], [ 0, %.lr.ph ]
  %.03439 = phi double [ %41, %37 ], [ 0.000000e+00, %.lr.ph ]
  %9 = load ptr, ptr %5, align 8
  %10 = getelementptr inbounds nuw %union.ListCell, ptr %9, i64 %indvars.iv
  %11 = load ptr, ptr %10, align 8
  call void @llvm.lifetime.start.p0(i64 16, ptr nonnull %3) #12
  %12 = load i32, ptr %11, align 4
  %13 = icmp eq i32 %12, 317
  br i1 %13, label %14, label %17

14:                                               ; preds = %.lr.ph41
  %15 = getelementptr inbounds nuw i8, ptr %11, i64 8
  %16 = load ptr, ptr %15, align 8
  %.pr = load i32, ptr %16, align 4
  br label %17

17:                                               ; preds = %14, %.lr.ph41
  %18 = phi i32 [ %.pr, %14 ], [ %12, %.lr.ph41 ]
  %.025 = phi ptr [ %16, %14 ], [ %11, %.lr.ph41 ]
  switch i32 %18, label %.split [
    i32 17, label %19
    i32 37, label %25
    i32 20, label %28
    i32 52, label %37
  ]

19:                                               ; preds = %17
  %20 = getelementptr inbounds nuw i8, ptr %.025, i64 32
  %21 = load ptr, ptr %20, align 8
  %22 = getelementptr i8, ptr %21, i64 16
  %.val29 = load ptr, ptr %22, align 8
  %23 = getelementptr inbounds nuw i8, ptr %.val29, i64 8
  %24 = load ptr, ptr %23, align 8
  br label %37

25:                                               ; preds = %17
  %26 = getelementptr inbounds nuw i8, ptr %.025, i64 40
  %27 = load ptr, ptr %26, align 8
  br label %37

28:                                               ; preds = %17
  %29 = getelementptr inbounds nuw i8, ptr %.025, i64 32
  %30 = load ptr, ptr %29, align 8
  %31 = getelementptr i8, ptr %30, i64 16
  %.val = load ptr, ptr %31, align 8
  %32 = getelementptr inbounds nuw i8, ptr %.val, i64 8
  %33 = load ptr, ptr %32, align 8
  br label %37

.split:                                           ; preds = %17
  %34 = call zeroext i1 @errstart_cold(i32 noundef 21, ptr noundef null) #14
  call void @llvm.assume(i1 %34)
  %35 = load i32, ptr %.025, align 4
  %36 = call i32 (ptr, ...) @errmsg_internal(ptr noundef nonnull @.str.8, i32 noundef %35) #12
  call void @errfinish(ptr noundef nonnull @.str.1, i32 noundef 6567, ptr noundef nonnull @__func__.index_other_operands_eval_cost) #12
  unreachable

37:                                               ; preds = %17, %25, %28, %19
  %.024 = phi ptr [ %24, %19 ], [ %27, %25 ], [ %33, %28 ], [ null, %17 ]
  call void @cost_qual_eval_node(ptr noundef nonnull %3, ptr noundef %.024, ptr noundef %0) #12
  %38 = load double, ptr %3, align 8
  %39 = load double, ptr %6, align 8
  %40 = fadd double %38, %39
  %41 = fadd double %.03439, %40
  call void @llvm.lifetime.end.p0(i64 16, ptr nonnull %3) #12
  %indvars.iv.next = add nuw nsw i64 %indvars.iv, 1
  %42 = load i32, ptr %4, align 4
  %43 = sext i32 %42 to i64
  %44 = icmp slt i64 %indvars.iv.next, %43
  br i1 %44, label %.lr.ph41, label %._crit_edge
}